target datalayout = "e-m:e-p270:32:32-p271:32:32-p272:64:64-i64:64-i128:128-f80:128-n8:16:32:64-S128"
target triple = "x86_64-pc-linux-gnu"

%struct.TclStubs = type { i32, ptr, ptr, ptr, ptr, ptr, ptr, ptr, ptr, ptr, ptr, ptr, ptr, ptr, ptr, ptr, ptr, ptr, ptr, ptr, ptr, ptr, ptr, ptr, ptr, ptr, ptr, ptr, ptr, ptr, ptr, ptr, ptr, ptr, ptr, ptr, ptr, ptr, ptr, ptr, ptr, ptr, ptr, ptr, ptr, ptr, ptr, ptr, ptr, ptr, ptr, ptr, ptr, ptr, ptr, ptr, ptr, ptr, ptr, ptr, ptr, ptr, ptr, ptr, ptr, ptr, ptr, ptr, ptr, ptr, ptr, ptr, ptr, ptr, ptr, ptr, ptr, ptr, ptr, ptr, ptr, ptr, ptr, ptr, ptr, ptr, ptr, ptr, ptr, ptr, ptr, ptr, ptr, ptr, ptr, ptr, ptr, ptr, ptr, ptr, ptr, ptr, ptr, ptr, ptr, ptr, ptr, ptr, ptr, ptr, ptr, ptr, ptr, ptr, ptr, ptr, ptr, ptr, ptr, ptr, ptr, ptr, ptr, ptr, ptr, ptr, ptr, ptr, ptr, ptr, ptr, ptr, ptr, ptr, ptr, ptr, ptr, ptr, ptr, ptr, ptr, ptr, ptr, ptr, ptr, ptr, ptr, ptr, ptr, ptr, ptr, ptr, ptr, ptr, ptr, ptr, ptr, ptr, ptr, ptr, ptr, ptr, ptr, ptr, ptr, ptr, ptr, ptr, ptr, ptr, ptr, ptr, ptr, ptr, ptr, ptr, ptr, ptr, ptr, ptr, ptr, ptr, ptr, ptr, ptr, ptr, ptr, ptr, ptr, ptr, ptr, ptr, ptr, ptr, ptr, ptr, ptr, ptr, ptr, ptr, ptr, ptr, ptr, ptr, ptr, ptr, ptr, ptr, ptr, ptr, ptr, ptr, ptr, ptr, ptr, ptr, ptr, ptr, ptr, ptr, ptr, ptr, ptr, ptr, ptr, ptr, ptr, ptr, ptr, ptr, ptr, ptr, ptr, ptr, ptr, ptr, ptr, ptr, ptr, ptr, ptr, ptr, ptr, ptr, ptr, ptr, ptr, ptr, ptr, ptr, ptr, ptr, ptr, ptr, ptr, ptr, ptr, ptr, ptr, ptr, ptr, ptr, ptr, ptr, ptr, ptr, ptr, ptr, ptr, ptr, ptr, ptr, ptr, ptr, ptr, ptr, ptr, ptr, ptr, ptr, ptr, ptr, ptr, ptr, ptr, ptr, ptr, ptr, ptr, ptr, ptr, ptr, ptr, ptr, ptr, ptr, ptr, ptr, ptr, ptr, ptr, ptr, ptr, ptr, ptr, ptr, ptr, ptr, ptr, ptr, ptr, ptr, ptr, ptr, ptr, ptr, ptr, ptr, ptr, ptr, ptr, ptr, ptr, ptr, ptr, ptr, ptr, ptr, ptr, ptr, ptr, ptr, ptr, ptr, ptr, ptr, ptr, ptr, ptr, ptr, ptr, ptr, ptr, ptr, ptr, ptr, ptr, ptr, ptr, ptr, ptr, ptr, ptr, ptr, ptr, ptr, ptr, ptr, ptr, ptr, ptr, ptr, ptr, ptr, ptr, ptr, ptr, ptr, ptr, ptr, ptr, ptr, ptr, ptr, ptr, ptr, ptr, ptr, ptr, ptr, ptr, ptr, ptr, ptr, ptr, ptr, ptr, ptr, ptr, ptr, ptr, ptr, ptr, ptr, ptr, ptr, ptr, ptr, ptr, ptr, ptr, ptr, ptr, ptr, ptr, ptr, ptr, ptr, ptr, ptr, ptr, ptr, ptr, ptr, ptr, ptr, ptr, ptr, ptr, ptr, ptr, ptr, ptr, ptr, ptr, ptr, ptr, ptr, ptr, ptr, ptr, ptr, ptr, ptr, ptr, ptr, ptr, ptr, ptr, ptr, ptr, ptr, ptr, ptr, ptr, ptr, ptr, ptr, ptr, ptr, ptr, ptr, ptr, ptr, ptr, ptr, ptr, ptr, ptr, ptr, ptr, ptr, ptr, ptr, ptr, ptr, ptr, ptr, ptr, ptr, ptr, ptr, ptr, ptr, ptr, ptr, ptr, ptr, ptr, ptr, ptr, ptr, ptr, ptr, ptr, ptr, ptr, ptr, ptr, ptr, ptr, ptr, ptr, ptr, ptr, ptr, ptr, ptr, ptr, ptr, ptr, ptr, ptr, ptr, ptr, ptr, ptr, ptr, ptr, ptr, ptr, ptr, ptr, ptr, ptr, ptr, ptr, ptr, ptr, ptr, ptr, ptr, ptr, ptr, ptr, ptr, ptr, ptr, ptr, ptr, ptr, ptr, ptr, ptr, ptr, ptr, ptr, ptr, ptr, ptr, ptr, ptr, ptr, ptr, ptr, ptr, ptr, ptr, ptr, ptr, ptr, ptr, ptr, ptr, ptr, ptr, ptr, ptr, ptr, ptr, ptr, ptr, ptr, ptr, ptr, ptr, ptr, ptr, ptr, ptr, ptr, ptr, ptr, ptr, ptr, ptr, ptr, ptr, ptr, ptr, ptr, ptr, ptr, ptr, ptr, ptr, ptr, ptr, ptr, ptr, ptr, ptr, ptr, ptr, ptr, ptr, ptr, ptr, ptr, ptr, ptr, ptr, ptr, ptr, ptr, ptr, ptr, ptr, ptr, ptr, ptr, ptr, ptr, ptr, ptr, ptr, ptr, ptr, ptr, ptr, ptr, ptr, ptr, ptr, ptr, ptr, ptr, ptr, ptr, ptr, ptr, ptr, ptr, ptr, ptr, ptr, ptr, ptr, ptr, ptr, ptr, ptr, ptr, ptr, ptr, ptr, ptr, ptr, ptr, ptr, ptr, ptr, ptr, ptr, ptr, ptr, ptr, ptr, ptr, ptr, ptr, ptr, ptr }
%struct.Tcl_DString = type { ptr, i32, i32, [200 x i8] }
%struct.SqliteDb = type { ptr, ptr, ptr, ptr, ptr, ptr, ptr, ptr, ptr, ptr, i32, ptr, ptr, ptr, ptr, ptr, ptr, ptr, ptr, i32, ptr, ptr, ptr, i32, i32, ptr, i32, i32, i32, i32, i32, i32, i32 }

@tclStubsPtr = external global ptr, align 8
@.str.226 = private unnamed_addr constant [5 x i8] c"%lld\00", align 1

; Function Attrs: nounwind uwtable
define internal void @DbProfileHandler(ptr noundef %0, ptr noundef %1, i64 noundef %2) #0 {
  %4 = alloca ptr, align 8
  %5 = alloca ptr, align 8
  %6 = alloca i64, align 8
  %7 = alloca ptr, align 8
  %8 = alloca %struct.Tcl_DString, align 8
  %9 = alloca [100 x i8], align 16
  store ptr %0, ptr %4, align 8, !tbaa !15
  store ptr %1, ptr %5, align 8, !tbaa !18
  store i64 %2, ptr %6, align 8, !tbaa !97
  call void @llvm.lifetime.start.p0(i64 8, ptr %7) #10
  %10 = load ptr, ptr %4, align 8, !tbaa !15
  store ptr %10, ptr %7, align 8, !tbaa !30
  call void @llvm.lifetime.start.p0(i64 216, ptr %8) #10
  call void @llvm.lifetime.start.p0(i64 100, ptr %9) #10
  %11 = getelementptr inbounds [100 x i8], ptr %9, i64 0, i64 0
  %12 = load i64, ptr %6, align 8, !tbaa !97
  %13 = call ptr (i32, ptr, ptr, ...) @sqlite3_snprintf(i32 noundef 99, ptr noundef %11, ptr noundef @.str.226, i64 noundef %12)
  %14 = load ptr, ptr @tclStubsPtr, align 8, !tbaa !10
  %15 = getelementptr inbounds nuw %struct.TclStubs, ptr %14, i32 0, i32 124
  %16 = load ptr, ptr %15, align 8, !tbaa !135
  call void %16(ptr noundef %8)
  %17 = load ptr, ptr @tclStubsPtr, align 8, !tbaa !10
  %18 = getelementptr inbounds nuw %struct.TclStubs, ptr %17, i32 0, i32 119
  %19 = load ptr, ptr %18, align 8, !tbaa !136
  %20 = load ptr, ptr %7, align 8, !tbaa !30
  %21 = getelementptr inbounds nuw %struct.SqliteDb, ptr %20, i32 0, i32 6
  %22 = load ptr, ptr %21, align 8, !tbaa !117
  %23 = call ptr %19(ptr noundef %8, ptr noundef %22, i32 noundef -1)
  %24 = load ptr, ptr @tclStubsPtr, align 8, !tbaa !10
  %25 = getelementptr inbounds nuw %struct.TclStubs, ptr %24, i32 0, i32 120
  %26 = load ptr, ptr %25, align 8, !tbaa !137
  %27 = load ptr, ptr %5, align 8, !tbaa !18
  %28 = call ptr %26(ptr noundef %8, ptr noundef %27)
  %29 = load ptr, ptr @tclStubsPtr, align 8, !tbaa !10
  %30 = getelementptr inbounds nuw %struct.TclStubs, ptr %29, i32 0, i32 120
  %31 = load ptr, ptr %30, align 8, !tbaa !137
  %32 = getelementptr inbounds [100 x i8], ptr %9, i64 0, i64 0
  %33 = call ptr %31(ptr noundef %8, ptr noundef %32)
  %34 = load ptr, ptr @tclStubsPtr, align 8, !tbaa !10
  %35 = getelementptr inbounds nuw %struct.TclStubs, ptr %34, i32 0, i32 131
  %36 = load ptr, ptr %35, align 8, !tbaa !150
  %37 = load ptr, ptr %7, align 8, !tbaa !30
  %38 = getelementptr inbounds nuw %struct.SqliteDb, ptr %37, i32 0, i32 1
  %39 = load ptr, ptr %38, align 8, !tbaa !45
  %40 = getelementptr inbounds nuw %struct.Tcl_DString, ptr %8, i32 0, i32 0
  %41 = load ptr, ptr %40, align 8, !tbaa !139
  %42 = call i32 %36(ptr noundef %39, ptr noundef %41)
  %43 = load ptr, ptr @tclStubsPtr, align 8, !tbaa !10
  %44 = getelementptr inbounds nuw %struct.TclStubs, ptr %43, i32 0, i32 122
  %45 = load ptr, ptr %44, align 8, !tbaa !33
  call void %45(ptr noundef %8)
  %46 = load ptr, ptr @tclStubsPtr, align 8, !tbaa !10
  %47 = getelementptr inbounds nuw %struct.TclStubs, ptr %46, i32 0, i32 219
  %48 = load ptr, ptr %47, align 8, !tbaa !102
  %49 = load ptr, ptr %7, align 8, !tbaa !30
  %50 = getelementptr inbounds nuw %struct.SqliteDb, ptr %49, i32 0, i32 1
  %51 = load ptr, ptr %50, align 8, !tbaa !45
  call void %48(ptr noundef %51)
  call void @llvm.lifetime.end.p0(i64 100, ptr %9) #10
  call void @llvm.lifetime.end.p0(i64 216, ptr %8) #10
  call void @llvm.lifetime.end.p0(i64 8, ptr %7) #10
  ret void
}