; Function Attrs: nounwind uwtable
define internal void @DbProfileHandler(ptr noundef readonly captures(none) %0, ptr noundef %1, i64 noundef %2) #0 {
  %4 = alloca %struct.Tcl_DString, align 8
  %5 = alloca [100 x i8], align 16
  call void @llvm.lifetime.start.p0(i64 216, ptr nonnull %4) #14
  call void @llvm.lifetime.start.p0(i64 100, ptr nonnull %5) #14
  %6 = call ptr (i32, ptr, ptr, ...) @sqlite3_snprintf(i32 noundef 99, ptr noundef nonnull %5, ptr noundef nonnull @.str.226, i64 noundef %2) #14
  %7 = load ptr, ptr @tclStubsPtr, align 8, !tbaa !3
  %8 = getelementptr inbounds nuw i8, ptr %7, i64 992
  %9 = load ptr, ptr %8, align 8, !tbaa !122
  call void %9(ptr noundef nonnull %4) #14
  %10 = load ptr, ptr @tclStubsPtr, align 8, !tbaa !3
  %11 = getelementptr inbounds nuw i8, ptr %10, i64 952
  %12 = load ptr, ptr %11, align 8, !tbaa !123
  %13 = getelementptr inbounds nuw i8, ptr %0, i64 48
  %14 = load ptr, ptr %13, align 8, !tbaa !109
  %15 = call ptr %12(ptr noundef nonnull %4, ptr noundef %14, i32 noundef -1) #14
  %16 = load ptr, ptr @tclStubsPtr, align 8, !tbaa !3
  %17 = getelementptr inbounds nuw i8, ptr %16, i64 960
  %18 = load ptr, ptr %17, align 8, !tbaa !124
  %19 = call ptr %18(ptr noundef nonnull %4, ptr noundef %1) #14
  %20 = load ptr, ptr @tclStubsPtr, align 8, !tbaa !3
  %21 = getelementptr inbounds nuw i8, ptr %20, i64 960
  %22 = load ptr, ptr %21, align 8, !tbaa !124
  %23 = call ptr %22(ptr noundef nonnull %4, ptr noundef nonnull %5) #14
  %24 = load ptr, ptr @tclStubsPtr, align 8, !tbaa !3
  %25 = getelementptr inbounds nuw i8, ptr %24, i64 1048
  %26 = load ptr, ptr %25, align 8, !tbaa !136
  %27 = getelementptr inbounds nuw i8, ptr %0, i64 8
  %28 = load ptr, ptr %27, align 8, !tbaa !39
  %29 = load ptr, ptr %4, align 8, !tbaa !126
  %30 = call i32 %26(ptr noundef %28, ptr noundef %29) #14
  %31 = load ptr, ptr @tclStubsPtr, align 8, !tbaa !3
  %32 = getelementptr inbounds nuw i8, ptr %31, i64 976
  %33 = load ptr, ptr %32, align 8, !tbaa !25
  call void %33(ptr noundef nonnull %4) #14
  %34 = load ptr, ptr @tclStubsPtr, align 8, !tbaa !3
  %35 = getelementptr inbounds nuw i8, ptr %34, i64 1752
  %36 = load ptr, ptr %35, align 8, !tbaa !97
  %37 = load ptr, ptr %27, align 8, !tbaa !39
  call void %36(ptr noundef %37) #14
  call void @llvm.lifetime.end.p0(i64 100, ptr nonnull %5) #14
  call void @llvm.lifetime.end.p0(i64 216, ptr nonnull %4) #14
  ret void
}